target datalayout = "e-m:e-p270:32:32-p271:32:32-p272:64:64-i64:64-i128:128-f80:128-n8:16:32:64-S128"
target triple = "x86_64-pc-linux-gnu"

%struct.CMajEnv = type { ptr, i32, ptr, ptr, ptr, ptr, ptr, ptr, i32 }

@stderr = external global ptr, align 8
@.str = private unnamed_addr constant [58 x i8] c"integer overflow when trying to allocate %zu * %zu bytes\0A\00", align 1
@.str.1 = private unnamed_addr constant [49 x i8] c"out of memory when trying to allocate %zu bytes\0A\00", align 1

; Function Attrs: inlinehint nounwind uwtable
define internal ptr @gv_calloc(i64 noundef %0, i64 noundef %1) #2 {
  %3 = alloca i64, align 8
  %4 = alloca i64, align 8
  %5 = alloca ptr, align 8
  store i64 %0, ptr %3, align 8, !tbaa !18
  store i64 %1, ptr %4, align 8, !tbaa !18
  %6 = load i64, ptr %3, align 8, !tbaa !18
  %7 = icmp ugt i64 %6, 0
  br i1 %7, label %8, label %18

8:                                                ; preds = %2
  %9 = load i64, ptr %3, align 8, !tbaa !18
  %10 = udiv i64 -1, %9
  %11 = load i64, ptr %4, align 8, !tbaa !18
  %12 = icmp ult i64 %10, %11
  br i1 %12, label %13, label %18

13:                                               ; preds = %8
  %14 = load ptr, ptr @stderr, align 8, !tbaa !20
  %15 = load i64, ptr %3, align 8, !tbaa !18
  %16 = load i64, ptr %4, align 8, !tbaa !18
  %17 = call i32 (ptr, ptr, ...) @fprintf(ptr noundef %14, ptr noundef @.str, i64 noundef %15, i64 noundef %16) #12
  call void @graphviz_exit(i32 noundef 1) #13
  unreachable

18:                                               ; preds = %8, %2
  call void @llvm.lifetime.start.p0(i64 8, ptr %5) #12
  %19 = load i64, ptr %3, align 8, !tbaa !18
  %20 = load i64, ptr %4, align 8, !tbaa !18
  %21 = call noalias ptr @calloc(i64 noundef %19, i64 noundef %20) #14
  store ptr %21, ptr %5, align 8, !tbaa !22
  %22 = load i64, ptr %3, align 8, !tbaa !18
  %23 = icmp ugt i64 %22, 0
  br i1 %23, label %24, label %36

24:                                               ; preds = %18
  %25 = load i64, ptr %4, align 8, !tbaa !18
  %26 = icmp ugt i64 %25, 0
  br i1 %26, label %27, label %36

27:                                               ; preds = %24
  %28 = load ptr, ptr %5, align 8, !tbaa !22
  %29 = icmp eq ptr %28, null
  br i1 %29, label %30, label %36

30:                                               ; preds = %27
  %31 = load ptr, ptr @stderr, align 8, !tbaa !20
  %32 = load i64, ptr %3, align 8, !tbaa !18
  %33 = load i64, ptr %4, align 8, !tbaa !18
  %34 = mul i64 %32, %33
  %35 = call i32 (ptr, ptr, ...) @fprintf(ptr noundef %31, ptr noundef @.str.1, i64 noundef %34) #12
  call void @graphviz_exit(i32 noundef 1) #13
  unreachable

36:                                               ; preds = %27, %24, %18
  %37 = load ptr, ptr %5, align 8, !tbaa !22
  call void @llvm.lifetime.end.p0(i64 8, ptr %5) #12
  ret ptr %37
}

; Function Attrs: inlinehint nounwind uwtable
define internal ptr @gv_alloc(i64 noundef %0) #2 {
  %2 = alloca i64, align 8
  store i64 %0, ptr %2, align 8, !tbaa !18
  %3 = load i64, ptr %2, align 8, !tbaa !18
  %4 = call ptr @gv_calloc(i64 noundef 1, i64 noundef %3)
  ret ptr %4
}

; Function Attrs: nounwind uwtable
define ptr @initConstrainedMajorization(ptr noundef %0, i32 noundef %1, ptr noundef %2, ptr noundef %3, i32 noundef %4) #0 {
  %6 = alloca ptr, align 8
  %7 = alloca i32, align 4
  %8 = alloca ptr, align 8
  %9 = alloca ptr, align 8
  %10 = alloca i32, align 4
  %11 = alloca ptr, align 8
  store ptr %0, ptr %6, align 8, !tbaa !3
  store i32 %1, ptr %7, align 4, !tbaa !8
  store ptr %2, ptr %8, align 8, !tbaa !28
  store ptr %3, ptr %9, align 8, !tbaa !28
  store i32 %4, ptr %10, align 4, !tbaa !8
  call void @llvm.lifetime.start.p0(i64 8, ptr %11) #12
  %12 = call ptr @gv_alloc(i64 noundef 72)
  store ptr %12, ptr %11, align 8, !tbaa !22
  %13 = load i32, ptr %7, align 4, !tbaa !8
  %14 = load ptr, ptr %11, align 8, !tbaa !22
  %15 = getelementptr inbounds nuw %struct.CMajEnv, ptr %14, i32 0, i32 1
  store i32 %13, ptr %15, align 8, !tbaa !23
  %16 = load ptr, ptr %8, align 8, !tbaa !28
  %17 = load ptr, ptr %11, align 8, !tbaa !22
  %18 = getelementptr inbounds nuw %struct.CMajEnv, ptr %17, i32 0, i32 6
  store ptr %16, ptr %18, align 8, !tbaa !27
  %19 = load ptr, ptr %9, align 8, !tbaa !28
  %20 = load ptr, ptr %11, align 8, !tbaa !22
  %21 = getelementptr inbounds nuw %struct.CMajEnv, ptr %20, i32 0, i32 7
  store ptr %19, ptr %21, align 8, !tbaa !29
  %22 = load i32, ptr %10, align 4, !tbaa !8
  %23 = load ptr, ptr %11, align 8, !tbaa !22
  %24 = getelementptr inbounds nuw %struct.CMajEnv, ptr %23, i32 0, i32 8
  store i32 %22, ptr %24, align 8, !tbaa !30
  %25 = load ptr, ptr %6, align 8, !tbaa !3
  %26 = load i32, ptr %7, align 4, !tbaa !8
  %27 = call ptr @unpackMatrix(ptr noundef %25, i32 noundef %26)
  %28 = load ptr, ptr %11, align 8, !tbaa !22
  %29 = getelementptr inbounds nuw %struct.CMajEnv, ptr %28, i32 0, i32 0
  store ptr %27, ptr %29, align 8, !tbaa !26
  %30 = load i32, ptr %7, align 4, !tbaa !8
  %31 = sext i32 %30 to i64
  %32 = call ptr @gv_calloc(i64 noundef %31, i64 noundef 4)
  %33 = load ptr, ptr %11, align 8, !tbaa !22
  %34 = getelementptr inbounds nuw %struct.CMajEnv, ptr %33, i32 0, i32 2
  store ptr %32, ptr %34, align 8, !tbaa !33
  %35 = load i32, ptr %7, align 4, !tbaa !8
  %36 = sext i32 %35 to i64
  %37 = call ptr @gv_calloc(i64 noundef %36, i64 noundef 4)
  %38 = load ptr, ptr %11, align 8, !tbaa !22
  %39 = getelementptr inbounds nuw %struct.CMajEnv, ptr %38, i32 0, i32 3
  store ptr %37, ptr %39, align 8, !tbaa !34
  %40 = load i32, ptr %7, align 4, !tbaa !8
  %41 = sext i32 %40 to i64
  %42 = call ptr @gv_calloc(i64 noundef %41, i64 noundef 4)
  %43 = load ptr, ptr %11, align 8, !tbaa !22
  %44 = getelementptr inbounds nuw %struct.CMajEnv, ptr %43, i32 0, i32 4
  store ptr %42, ptr %44, align 8, !tbaa !35
  %45 = load i32, ptr %7, align 4, !tbaa !8
  %46 = sext i32 %45 to i64
  %47 = call ptr @gv_calloc(i64 noundef %46, i64 noundef 4)
  %48 = load ptr, ptr %11, align 8, !tbaa !22
  %49 = getelementptr inbounds nuw %struct.CMajEnv, ptr %48, i32 0, i32 5
  store ptr %47, ptr %49, align 8, !tbaa !37
  %50 = load ptr, ptr %11, align 8, !tbaa !22
  call void @llvm.lifetime.end.p0(i64 8, ptr %11) #12
  ret ptr %50
}