; Function Attrs: nounwind uwtable
define noalias noundef ptr @initConstrainedMajorization(ptr noundef readonly captures(none) %0, i32 noundef %1, ptr noundef %2, ptr noundef %3, i32 noundef %4) local_unnamed_addr #0 {
  %6 = tail call noalias dereferenceable_or_null(72) ptr @calloc(i64 noundef 1, i64 noundef 72) #16
  %7 = icmp eq ptr %6, null
  br i1 %7, label %8, label %gv_alloc.exit

8:                                                ; preds = %5
  %9 = load ptr, ptr @stderr, align 8, !tbaa !3
  %10 = tail call i32 (ptr, ptr, ...) @fprintf(ptr noundef %9, ptr noundef nonnull @.str.1, i64 noundef 72) #14
  tail call fastcc void @graphviz_exit() #15
  unreachable

gv_alloc.exit:                                    ; preds = %5
  %11 = getelementptr inbounds nuw i8, ptr %6, i64 8
  store i32 %1, ptr %11, align 8, !tbaa !16
  %12 = getelementptr inbounds nuw i8, ptr %6, i64 48
  store ptr %2, ptr %12, align 8, !tbaa !22
  %13 = getelementptr inbounds nuw i8, ptr %6, i64 56
  store ptr %3, ptr %13, align 8, !tbaa !23
  %14 = getelementptr inbounds nuw i8, ptr %6, i64 64
  store i32 %4, ptr %14, align 8, !tbaa !24
  %15 = tail call ptr @unpackMatrix(ptr noundef %0, i32 noundef %1)
  store ptr %15, ptr %6, align 8, !tbaa !21
  %16 = sext i32 %1 to i64
  %.not.i = icmp eq i32 %1, 0
  br i1 %.not.i, label %.thread.i32, label %17

17:                                               ; preds = %gv_alloc.exit
  %mul.ov.i = icmp slt i32 %1, 0
  br i1 %mul.ov.i, label %18, label %21

18:                                               ; preds = %17
  %19 = load ptr, ptr @stderr, align 8, !tbaa !3
  %20 = tail call i32 (ptr, ptr, ...) @fprintf(ptr noundef %19, ptr noundef nonnull @.str, i64 noundef range(i64 -2147483648, 2147483648) %16, i64 noundef 4) #14
  tail call fastcc void @graphviz_exit() #15
  unreachable

21:                                               ; preds = %17
  %22 = tail call noalias ptr @calloc(i64 noundef range(i64 -2147483648, 2147483648) %16, i64 noundef 4) #16
  %23 = icmp eq ptr %22, null
  br i1 %23, label %24, label %28

24:                                               ; preds = %21
  %25 = load ptr, ptr @stderr, align 8, !tbaa !3
  %26 = shl nuw nsw i64 %16, 2
  %27 = tail call i32 (ptr, ptr, ...) @fprintf(ptr noundef %25, ptr noundef nonnull @.str.1, i64 noundef %26) #14
  tail call fastcc void @graphviz_exit() #15
  unreachable

28:                                               ; preds = %21
  %29 = getelementptr inbounds nuw i8, ptr %6, i64 16
  store ptr %22, ptr %29, align 8, !tbaa !27
  %30 = tail call noalias ptr @calloc(i64 noundef range(i64 -2147483648, 2147483648) %16, i64 noundef 4) #16
  %31 = icmp eq ptr %30, null
  br i1 %31, label %32, label %36

32:                                               ; preds = %28
  %33 = load ptr, ptr @stderr, align 8, !tbaa !3
  %34 = shl nuw nsw i64 %16, 2
  %35 = tail call i32 (ptr, ptr, ...) @fprintf(ptr noundef %33, ptr noundef nonnull @.str.1, i64 noundef %34) #14
  tail call fastcc void @graphviz_exit() #15
  unreachable

36:                                               ; preds = %28
  %37 = getelementptr inbounds nuw i8, ptr %6, i64 24
  store ptr %30, ptr %37, align 8, !tbaa !28
  %38 = tail call noalias ptr @calloc(i64 noundef range(i64 -2147483648, 2147483648) %16, i64 noundef 4) #16
  %39 = icmp eq ptr %38, null
  br i1 %39, label %40, label %51

40:                                               ; preds = %36
  %41 = load ptr, ptr @stderr, align 8, !tbaa !3
  %42 = shl nuw nsw i64 %16, 2
  %43 = tail call i32 (ptr, ptr, ...) @fprintf(ptr noundef %41, ptr noundef nonnull @.str.1, i64 noundef %42) #14
  tail call fastcc void @graphviz_exit() #15
  unreachable

.thread.i32:                                      ; preds = %gv_alloc.exit
  %44 = tail call noalias ptr @calloc(i64 noundef 0, i64 noundef 4) #16
  %45 = getelementptr inbounds nuw i8, ptr %6, i64 16
  store ptr %44, ptr %45, align 8, !tbaa !27
  %46 = tail call noalias ptr @calloc(i64 noundef 0, i64 noundef 4) #16
  %47 = getelementptr inbounds nuw i8, ptr %6, i64 24
  store ptr %46, ptr %47, align 8, !tbaa !28
  %48 = tail call noalias ptr @calloc(i64 noundef 0, i64 noundef 4) #16
  %49 = getelementptr inbounds nuw i8, ptr %6, i64 32
  store ptr %48, ptr %49, align 8, !tbaa !29
  %50 = tail call noalias ptr @calloc(i64 noundef 0, i64 noundef 4) #16
  br label %gv_calloc.exit33

51:                                               ; preds = %36
  %52 = getelementptr inbounds nuw i8, ptr %6, i64 32
  store ptr %38, ptr %52, align 8, !tbaa !29
  %53 = tail call noalias ptr @calloc(i64 noundef range(i64 -2147483648, 2147483648) %16, i64 noundef 4) #16
  %54 = icmp eq ptr %53, null
  br i1 %54, label %55, label %gv_calloc.exit33

55:                                               ; preds = %51
  %56 = load ptr, ptr @stderr, align 8, !tbaa !3
  %57 = shl nuw nsw i64 %16, 2
  %58 = tail call i32 (ptr, ptr, ...) @fprintf(ptr noundef %56, ptr noundef nonnull @.str.1, i64 noundef %57) #14
  tail call fastcc void @graphviz_exit() #15
  unreachable

gv_calloc.exit33:                                 ; preds = %.thread.i32, %51
  %59 = phi ptr [ %50, %.thread.i32 ], [ %53, %51 ]
  %60 = getelementptr inbounds nuw i8, ptr %6, i64 40
  store ptr %59, ptr %60, align 8, !tbaa !30
  ret ptr %6
}